; Function Attrs: nounwind uwtable
define internal range(i32 0, 2) i32 @dsa_pub_print(ptr noundef %0, ptr noundef readonly captures(none) %1, i32 noundef %2, ptr readnone captures(none) %3) #0 {
  %5 = getelementptr inbounds nuw i8, ptr %1, i64 32
  %6 = load ptr, ptr %5, align 8, !tbaa !29
  %7 = getelementptr inbounds nuw i8, ptr %6, i64 8
  %8 = load ptr, ptr %7, align 8, !tbaa !37
  %.not.i = icmp eq ptr %8, null
  br i1 %.not.i, label %11, label %9

9:                                                ; preds = %4
  %10 = tail call i32 @DSA_bits(ptr noundef nonnull %6) #5
  br label %11

11:                                               ; preds = %9, %4
  %.0.i = phi i32 [ %10, %9 ], [ 0, %4 ]
  %12 = getelementptr inbounds nuw i8, ptr %6, i64 104
  %13 = load ptr, ptr %12, align 8, !tbaa !17
  %14 = tail call i32 (ptr, ptr, ...) @BIO_printf(ptr noundef %0, ptr noundef nonnull @.str.7, i32 noundef %.0.i) #5
  %15 = icmp slt i32 %14, 1
  br i1 %15, label %do_dsa_print.exit, label %16

16:                                               ; preds = %11
  %17 = tail call i32 @ASN1_bn_print(ptr noundef %0, ptr noundef nonnull @.str.8, ptr noundef null, ptr noundef null, i32 noundef %2) #5
  %.not33.i = icmp eq i32 %17, 0
  br i1 %.not33.i, label %do_dsa_print.exit, label %18

18:                                               ; preds = %16
  %19 = tail call i32 @ASN1_bn_print(ptr noundef %0, ptr noundef nonnull @.str.9, ptr noundef %13, ptr noundef null, i32 noundef %2) #5
  %.not34.i = icmp eq i32 %19, 0
  br i1 %.not34.i, label %do_dsa_print.exit, label %20

20:                                               ; preds = %18
  %21 = tail call i32 @ossl_ffc_params_print(ptr noundef %0, ptr noundef nonnull %7, i32 noundef %2) #5
  %.not35.i = icmp ne i32 %21, 0
  %spec.select.i = zext i1 %.not35.i to i32
  br label %do_dsa_print.exit

do_dsa_print.exit:                                ; preds = %11, %16, %18, %20
  %.028.i = phi i32 [ 0, %18 ], [ 0, %16 ], [ 0, %11 ], [ %spec.select.i, %20 ]
  ret i32 %.028.i
}